target datalayout = "e-m:e-p270:32:32-p271:32:32-p272:64:64-i64:64-i128:128-f80:128-n8:16:32:64-S128"
target triple = "x86_64-unknown-linux-gnu"

%struct._GOnce = type { i32, ptr }

@instance_init = internal global %struct._GOnce zeroinitializer, align 8
@instance = internal global ptr null, align 8

; Function Attrs: nounwind sspstrong uwtable
define dso_local ptr @qio_dns_resolver_get_instance() #0 {
entry:
  %atomic-temp = alloca i32, align 4
  %0 = load atomic volatile i32, ptr @instance_init acquire, align 8
  store i32 %0, ptr %atomic-temp, align 4
  %1 = load i32, ptr %atomic-temp, align 4
  %cmp = icmp eq i32 %1, 2
  br i1 %cmp, label %cond.true, label %cond.false

cond.true:                                        ; preds = %entry
  %2 = getelementptr inbounds %struct._GOnce, ptr @instance_init, i32 0, i32 1
  %3 = load volatile ptr, ptr %2, align 8
  br label %cond.end

cond.false:                                       ; preds = %entry
  %call = call ptr @g_once_impl(ptr noundef @instance_init, ptr noundef @qio_dns_resolve_init_instance, ptr noundef null)
  br label %cond.end

cond.end:                                         ; preds = %cond.false, %cond.true
  %4 = load ptr, ptr @instance, align 8
  ret ptr %4
}