; Function Attrs: nounwind sspstrong uwtable
define dso_local ptr @qio_dns_resolver_get_instance() local_unnamed_addr #0 {
entry:
  %0 = load atomic volatile i32, ptr @instance_init acquire, align 8
  %cmp = icmp eq i32 %0, 2
  br i1 %cmp, label %cond.true, label %cond.false

cond.true:                                        ; preds = %entry
  %1 = load volatile ptr, ptr getelementptr inbounds nuw (i8, ptr @instance_init, i64 8), align 8
  br label %cond.end

cond.false:                                       ; preds = %entry
  %call = tail call ptr @g_once_impl(ptr noundef nonnull @instance_init, ptr noundef nonnull @qio_dns_resolve_init_instance, ptr noundef null) #7
  br label %cond.end

cond.end:                                         ; preds = %cond.false, %cond.true
  %2 = load ptr, ptr @instance, align 8
  ret ptr %2
}